
run-decompressed:     file format elf64-x86-64


Disassembly of section .init:

0000000000400b70 <_init>:
  400b70:	48 83 ec 08          	sub    $0x8,%rsp
  400b74:	48 8b 05 7d 14 20 00 	mov    0x20147d(%rip),%rax        # 601ff8 <__gmon_start__>
  400b7b:	48 85 c0             	test   %rax,%rax
  400b7e:	74 05                	je     400b85 <_init+0x15>
  400b80:	e8 5b 01 00 00       	callq  400ce0 <__gmon_start__@plt>
  400b85:	48 83 c4 08          	add    $0x8,%rsp
  400b89:	c3                   	retq   

Disassembly of section .plt:

0000000000400b90 <.plt>:
  400b90:	ff 35 72 14 20 00    	pushq  0x201472(%rip)        # 602008 <_GLOBAL_OFFSET_TABLE_+0x8>
  400b96:	ff 25 74 14 20 00    	jmpq   *0x201474(%rip)        # 602010 <_GLOBAL_OFFSET_TABLE_+0x10>
  400b9c:	0f 1f 40 00          	nopl   0x0(%rax)

0000000000400ba0 <puts@plt>:
  400ba0:	ff 25 72 14 20 00    	jmpq   *0x201472(%rip)        # 602018 <puts@GLIBC_2.2.5>
  400ba6:	68 00 00 00 00       	pushq  $0x0
  400bab:	e9 e0 ff ff ff       	jmpq   400b90 <.plt>

0000000000400bb0 <exit@plt>:
  400bb0:	ff 25 6a 14 20 00    	jmpq   *0x20146a(%rip)        # 602020 <exit@GLIBC_2.2.5>
  400bb6:	68 01 00 00 00       	pushq  $0x1
  400bbb:	e9 d0 ff ff ff       	jmpq   400b90 <.plt>

0000000000400bc0 <_ZNKSt7__cxx1112basic_stringIcSt11char_traitsIcESaIcEE6lengthEv@plt>:
  400bc0:	ff 25 62 14 20 00    	jmpq   *0x201462(%rip)        # 602028 <_ZNKSt7__cxx1112basic_stringIcSt11char_traitsIcESaIcEE6lengthEv@GLIBCXX_3.4.21>
  400bc6:	68 02 00 00 00       	pushq  $0x2
  400bcb:	e9 c0 ff ff ff       	jmpq   400b90 <.plt>

0000000000400bd0 <_ZNSt8ios_base4InitC1Ev@plt>:
  400bd0:	ff 25 5a 14 20 00    	jmpq   *0x20145a(%rip)        # 602030 <_ZNSt8ios_base4InitC1Ev@GLIBCXX_3.4>
  400bd6:	68 03 00 00 00       	pushq  $0x3
  400bdb:	e9 b0 ff ff ff       	jmpq   400b90 <.plt>

0000000000400be0 <__libc_start_main@plt>:
  400be0:	ff 25 52 14 20 00    	jmpq   *0x201452(%rip)        # 602038 <__libc_start_main@GLIBC_2.2.5>
  400be6:	68 04 00 00 00       	pushq  $0x4
  400beb:	e9 a0 ff ff ff       	jmpq   400b90 <.plt>

0000000000400bf0 <__cxa_atexit@plt>:
  400bf0:	ff 25 4a 14 20 00    	jmpq   *0x20144a(%rip)        # 602040 <__cxa_atexit@GLIBC_2.2.5>
  400bf6:	68 05 00 00 00       	pushq  $0x5
  400bfb:	e9 90 ff ff ff       	jmpq   400b90 <.plt>

0000000000400c00 <_ZNSt8ios_base4InitD1Ev@plt>:
  400c00:	ff 25 42 14 20 00    	jmpq   *0x201442(%rip)        # 602048 <_ZNSt8ios_base4InitD1Ev@GLIBCXX_3.4>
  400c06:	68 06 00 00 00       	pushq  $0x6
  400c0b:	e9 80 ff ff ff       	jmpq   400b90 <.plt>

0000000000400c10 <_ZStlsISt11char_traitsIcEERSt13basic_ostreamIcT_ES5_PKc@plt>:
  400c10:	ff 25 3a 14 20 00    	jmpq   *0x20143a(%rip)        # 602050 <_ZStlsISt11char_traitsIcEERSt13basic_ostreamIcT_ES5_PKc@GLIBCXX_3.4>
  400c16:	68 07 00 00 00       	pushq  $0x7
  400c1b:	e9 70 ff ff ff       	jmpq   400b90 <.plt>

0000000000400c20 <_ZNSt7__cxx1112basic_stringIcSt11char_traitsIcESaIcEED1Ev@plt>:
  400c20:	ff 25 32 14 20 00    	jmpq   *0x201432(%rip)        # 602058 <_ZNSt7__cxx1112basic_stringIcSt11char_traitsIcESaIcEED1Ev@GLIBCXX_3.4.21>
  400c26:	68 08 00 00 00       	pushq  $0x8
  400c2b:	e9 60 ff ff ff       	jmpq   400b90 <.plt>

0000000000400c30 <_ZNKSt7__cxx1112basic_stringIcSt11char_traitsIcESaIcEE7compareERKS4_@plt>:
  400c30:	ff 25 2a 14 20 00    	jmpq   *0x20142a(%rip)        # 602060 <_ZNKSt7__cxx1112basic_stringIcSt11char_traitsIcESaIcEE7compareERKS4_@GLIBCXX_3.4.21>
  400c36:	68 09 00 00 00       	pushq  $0x9
  400c3b:	e9 50 ff ff ff       	jmpq   400b90 <.plt>

0000000000400c40 <ptrace@plt>:
  400c40:	ff 25 22 14 20 00    	jmpq   *0x201422(%rip)        # 602068 <ptrace@GLIBC_2.2.5>
  400c46:	68 0a 00 00 00       	pushq  $0xa
  400c4b:	e9 40 ff ff ff       	jmpq   400b90 <.plt>

0000000000400c50 <__stack_chk_fail@plt>:
  400c50:	ff 25 1a 14 20 00    	jmpq   *0x20141a(%rip)        # 602070 <__stack_chk_fail@GLIBC_2.4>
  400c56:	68 0b 00 00 00       	pushq  $0xb
  400c5b:	e9 30 ff ff ff       	jmpq   400b90 <.plt>

0000000000400c60 <_ZNSaIcED1Ev@plt>:
  400c60:	ff 25 12 14 20 00    	jmpq   *0x201412(%rip)        # 602078 <_ZNSaIcED1Ev@GLIBCXX_3.4>
  400c66:	68 0c 00 00 00       	pushq  $0xc
  400c6b:	e9 20 ff ff ff       	jmpq   400b90 <.plt>

0000000000400c70 <_ZNSt7__cxx1112basic_stringIcSt11char_traitsIcESaIcEEC1ERKS4_@plt>:
  400c70:	ff 25 0a 14 20 00    	jmpq   *0x20140a(%rip)        # 602080 <_ZNSt7__cxx1112basic_stringIcSt11char_traitsIcESaIcEEC1ERKS4_@GLIBCXX_3.4.21>
  400c76:	68 0d 00 00 00       	pushq  $0xd
  400c7b:	e9 10 ff ff ff       	jmpq   400b90 <.plt>

0000000000400c80 <_ZNSt7__cxx1112basic_stringIcSt11char_traitsIcESaIcEEC1EPKcRKS3_@plt>:
  400c80:	ff 25 02 14 20 00    	jmpq   *0x201402(%rip)        # 602088 <_ZNSt7__cxx1112basic_stringIcSt11char_traitsIcESaIcEEC1EPKcRKS3_@GLIBCXX_3.4.21>
  400c86:	68 0e 00 00 00       	pushq  $0xe
  400c8b:	e9 00 ff ff ff       	jmpq   400b90 <.plt>

0000000000400c90 <_ZNSaIcEC1Ev@plt>:
  400c90:	ff 25 fa 13 20 00    	jmpq   *0x2013fa(%rip)        # 602090 <_ZNSaIcEC1Ev@GLIBCXX_3.4>
  400c96:	68 0f 00 00 00       	pushq  $0xf
  400c9b:	e9 f0 fe ff ff       	jmpq   400b90 <.plt>

0000000000400ca0 <__gxx_personality_v0@plt>:
  400ca0:	ff 25 f2 13 20 00    	jmpq   *0x2013f2(%rip)        # 602098 <__gxx_personality_v0@CXXABI_1.3>
  400ca6:	68 10 00 00 00       	pushq  $0x10
  400cab:	e9 e0 fe ff ff       	jmpq   400b90 <.plt>

0000000000400cb0 <_Unwind_Resume@plt>:
  400cb0:	ff 25 ea 13 20 00    	jmpq   *0x2013ea(%rip)        # 6020a0 <_Unwind_Resume@GCC_3.0>
  400cb6:	68 11 00 00 00       	pushq  $0x11
  400cbb:	e9 d0 fe ff ff       	jmpq   400b90 <.plt>

0000000000400cc0 <_ZNSt7__cxx1112basic_stringIcSt11char_traitsIcESaIcEEixEm@plt>:
  400cc0:	ff 25 e2 13 20 00    	jmpq   *0x2013e2(%rip)        # 6020a8 <_ZNSt7__cxx1112basic_stringIcSt11char_traitsIcESaIcEEixEm@GLIBCXX_3.4.21>
  400cc6:	68 12 00 00 00       	pushq  $0x12
  400ccb:	e9 c0 fe ff ff       	jmpq   400b90 <.plt>

0000000000400cd0 <_ZNSt7__cxx1112basic_stringIcSt11char_traitsIcESaIcEEpLEc@plt>:
  400cd0:	ff 25 da 13 20 00    	jmpq   *0x2013da(%rip)        # 6020b0 <_ZNSt7__cxx1112basic_stringIcSt11char_traitsIcESaIcEEpLEc@GLIBCXX_3.4.21>
  400cd6:	68 13 00 00 00       	pushq  $0x13
  400cdb:	e9 b0 fe ff ff       	jmpq   400b90 <.plt>

Disassembly of section .plt.got:

0000000000400ce0 <__gmon_start__@plt>:
  400ce0:	ff 25 12 13 20 00    	jmpq   *0x201312(%rip)        # 601ff8 <__gmon_start__>
  400ce6:	66 90                	xchg   %ax,%ax

Disassembly of section .text:

0000000000400cf0 <_start>:
  400cf0:	31 ed                	xor    %ebp,%ebp
  400cf2:	49 89 d1             	mov    %rdx,%r9
  400cf5:	5e                   	pop    %rsi
  400cf6:	48 89 e2             	mov    %rsp,%rdx
  400cf9:	48 83 e4 f0          	and    $0xfffffffffffffff0,%rsp
  400cfd:	50                   	push   %rax
  400cfe:	54                   	push   %rsp
  400cff:	49 c7 c0 50 15 40 00 	mov    $0x401550,%r8
  400d06:	48 c7 c1 e0 14 40 00 	mov    $0x4014e0,%rcx
  400d0d:	48 c7 c7 2c 0f 40 00 	mov    $0x400f2c,%rdi
  400d14:	e8 c7 fe ff ff       	callq  400be0 <__libc_start_main@plt>
  400d19:	f4                   	hlt    
  400d1a:	66 0f 1f 44 00 00    	nopw   0x0(%rax,%rax,1)

0000000000400d20 <deregister_tm_clones>:
  400d20:	b8 77 21 60 00       	mov    $0x602177,%eax
  400d25:	55                   	push   %rbp
  400d26:	48 2d 70 21 60 00    	sub    $0x602170,%rax
  400d2c:	48 83 f8 0e          	cmp    $0xe,%rax
  400d30:	48 89 e5             	mov    %rsp,%rbp
  400d33:	76 1b                	jbe    400d50 <deregister_tm_clones+0x30>
  400d35:	b8 00 00 00 00       	mov    $0x0,%eax
  400d3a:	48 85 c0             	test   %rax,%rax
  400d3d:	74 11                	je     400d50 <deregister_tm_clones+0x30>
  400d3f:	5d                   	pop    %rbp
  400d40:	bf 70 21 60 00       	mov    $0x602170,%edi
  400d45:	ff e0                	jmpq   *%rax
  400d47:	66 0f 1f 84 00 00 00 	nopw   0x0(%rax,%rax,1)
  400d4e:	00 00 
  400d50:	5d                   	pop    %rbp
  400d51:	c3                   	retq   
  400d52:	0f 1f 40 00          	nopl   0x0(%rax)
  400d56:	66 2e 0f 1f 84 00 00 	nopw   %cs:0x0(%rax,%rax,1)
  400d5d:	00 00 00 

0000000000400d60 <register_tm_clones>:
  400d60:	be 70 21 60 00       	mov    $0x602170,%esi
  400d65:	55                   	push   %rbp
  400d66:	48 81 ee 70 21 60 00 	sub    $0x602170,%rsi
  400d6d:	48 c1 fe 03          	sar    $0x3,%rsi
  400d71:	48 89 e5             	mov    %rsp,%rbp
  400d74:	48 89 f0             	mov    %rsi,%rax
  400d77:	48 c1 e8 3f          	shr    $0x3f,%rax
  400d7b:	48 01 c6             	add    %rax,%rsi
  400d7e:	48 d1 fe             	sar    %rsi
  400d81:	74 15                	je     400d98 <register_tm_clones+0x38>
  400d83:	b8 00 00 00 00       	mov    $0x0,%eax
  400d88:	48 85 c0             	test   %rax,%rax
  400d8b:	74 0b                	je     400d98 <register_tm_clones+0x38>
  400d8d:	5d                   	pop    %rbp
  400d8e:	bf 70 21 60 00       	mov    $0x602170,%edi
  400d93:	ff e0                	jmpq   *%rax
  400d95:	0f 1f 00             	nopl   (%rax)
  400d98:	5d                   	pop    %rbp
  400d99:	c3                   	retq   
  400d9a:	66 0f 1f 44 00 00    	nopw   0x0(%rax,%rax,1)

0000000000400da0 <__do_global_dtors_aux>:
  400da0:	80 3d e9 14 20 00 00 	cmpb   $0x0,0x2014e9(%rip)        # 602290 <completed.7594>
  400da7:	75 11                	jne    400dba <__do_global_dtors_aux+0x1a>
  400da9:	55                   	push   %rbp
  400daa:	48 89 e5             	mov    %rsp,%rbp
  400dad:	e8 6e ff ff ff       	callq  400d20 <deregister_tm_clones>
  400db2:	5d                   	pop    %rbp
  400db3:	c6 05 d6 14 20 00 01 	movb   $0x1,0x2014d6(%rip)        # 602290 <completed.7594>
  400dba:	f3 c3                	repz retq 
  400dbc:	0f 1f 40 00          	nopl   0x0(%rax)

0000000000400dc0 <frame_dummy>:
  400dc0:	bf 00 1e 60 00       	mov    $0x601e00,%edi
  400dc5:	48 83 3f 00          	cmpq   $0x0,(%rdi)
  400dc9:	75 05                	jne    400dd0 <frame_dummy+0x10>
  400dcb:	eb 93                	jmp    400d60 <register_tm_clones>
  400dcd:	0f 1f 00             	nopl   (%rax)
  400dd0:	b8 00 00 00 00       	mov    $0x0,%eax
  400dd5:	48 85 c0             	test   %rax,%rax
  400dd8:	74 f1                	je     400dcb <frame_dummy+0xb>
  400dda:	55                   	push   %rbp
  400ddb:	48 89 e5             	mov    %rsp,%rbp
  400dde:	ff d0                	callq  *%rax
  400de0:	5d                   	pop    %rbp
  400de1:	e9 7a ff ff ff       	jmpq   400d60 <register_tm_clones>

0000000000400de6 <_Z7rahasyaNSt7__cxx1112basic_stringIcSt11char_traitsIcESaIcEEES4_>:
  400de6:	55                   	push   %rbp
  400de7:	48 89 e5             	mov    %rsp,%rbp
  400dea:	53                   	push   %rbx
  400deb:	48 83 ec 38          	sub    $0x38,%rsp
  400def:	48 89 7d d8          	mov    %rdi,-0x28(%rbp)
  400df3:	48 89 75 d0          	mov    %rsi,-0x30(%rbp)
  400df7:	48 89 55 c8          	mov    %rdx,-0x38(%rbp)
  400dfb:	64 48 8b 04 25 28 00 	mov    %fs:0x28,%rax
  400e02:	00 00 
  400e04:	48 89 45 e8          	mov    %rax,-0x18(%rbp)
  400e08:	31 c0                	xor    %eax,%eax
  400e0a:	48 8d 45 e0          	lea    -0x20(%rbp),%rax
  400e0e:	48 89 c7             	mov    %rax,%rdi
  400e11:	e8 7a fe ff ff       	callq  400c90 <_ZNSaIcEC1Ev@plt>
  400e16:	48 8d 55 e0          	lea    -0x20(%rbp),%rdx
  400e1a:	48 8b 45 d8          	mov    -0x28(%rbp),%rax
  400e1e:	be 64 15 40 00       	mov    $0x401564,%esi
  400e23:	48 89 c7             	mov    %rax,%rdi
  400e26:	e8 55 fe ff ff       	callq  400c80 <_ZNSt7__cxx1112basic_stringIcSt11char_traitsIcESaIcEEC1EPKcRKS3_@plt>
  400e2b:	48 8d 45 e0          	lea    -0x20(%rbp),%rax
  400e2f:	48 89 c7             	mov    %rax,%rdi
  400e32:	e8 29 fe ff ff       	callq  400c60 <_ZNSaIcED1Ev@plt>
  400e37:	c7 45 e4 00 00 00 00 	movl   $0x0,-0x1c(%rbp)
  400e3e:	8b 45 e4             	mov    -0x1c(%rbp),%eax
  400e41:	48 63 d0             	movslq %eax,%rdx
  400e44:	48 8b 45 c8          	mov    -0x38(%rbp),%rax
  400e48:	48 89 d6             	mov    %rdx,%rsi
  400e4b:	48 89 c7             	mov    %rax,%rdi
  400e4e:	e8 6d fe ff ff       	callq  400cc0 <_ZNSt7__cxx1112basic_stringIcSt11char_traitsIcESaIcEEixEm@plt>
  400e53:	0f b6 00             	movzbl (%rax),%eax
  400e56:	84 c0                	test   %al,%al
  400e58:	0f 95 c0             	setne  %al
  400e5b:	84 c0                	test   %al,%al
  400e5d:	0f 84 a9 00 00 00    	je     400f0c <_Z7rahasyaNSt7__cxx1112basic_stringIcSt11char_traitsIcESaIcEEES4_+0x126>
  400e63:	8b 45 e4             	mov    -0x1c(%rbp),%eax
  400e66:	48 63 d0             	movslq %eax,%rdx
  400e69:	48 8b 45 c8          	mov    -0x38(%rbp),%rax
  400e6d:	48 89 d6             	mov    %rdx,%rsi
  400e70:	48 89 c7             	mov    %rax,%rdi
  400e73:	e8 48 fe ff ff       	callq  400cc0 <_ZNSt7__cxx1112basic_stringIcSt11char_traitsIcESaIcEEixEm@plt>
  400e78:	0f b6 00             	movzbl (%rax),%eax
  400e7b:	88 45 e1             	mov    %al,-0x1f(%rbp)
  400e7e:	8b 45 e4             	mov    -0x1c(%rbp),%eax
  400e81:	48 63 d8             	movslq %eax,%rbx
  400e84:	48 8b 45 d0          	mov    -0x30(%rbp),%rax
  400e88:	48 89 c7             	mov    %rax,%rdi
  400e8b:	e8 30 fd ff ff       	callq  400bc0 <_ZNKSt7__cxx1112basic_stringIcSt11char_traitsIcESaIcEE6lengthEv@plt>
  400e90:	48 89 c1             	mov    %rax,%rcx
  400e93:	48 89 d8             	mov    %rbx,%rax
  400e96:	ba 00 00 00 00       	mov    $0x0,%edx
  400e9b:	48 f7 f1             	div    %rcx
  400e9e:	48 8b 45 d0          	mov    -0x30(%rbp),%rax
  400ea2:	48 89 d6             	mov    %rdx,%rsi
  400ea5:	48 89 c7             	mov    %rax,%rdi
  400ea8:	e8 13 fe ff ff       	callq  400cc0 <_ZNSt7__cxx1112basic_stringIcSt11char_traitsIcESaIcEEixEm@plt>
  400ead:	0f b6 00             	movzbl (%rax),%eax
  400eb0:	88 45 e2             	mov    %al,-0x1e(%rbp)
  400eb3:	0f b6 45 e1          	movzbl -0x1f(%rbp),%eax
  400eb7:	32 45 e2             	xor    -0x1e(%rbp),%al
  400eba:	88 45 e3             	mov    %al,-0x1d(%rbp)
  400ebd:	0f be 55 e3          	movsbl -0x1d(%rbp),%edx
  400ec1:	48 8b 45 d8          	mov    -0x28(%rbp),%rax
  400ec5:	89 d6                	mov    %edx,%esi
  400ec7:	48 89 c7             	mov    %rax,%rdi
  400eca:	e8 01 fe ff ff       	callq  400cd0 <_ZNSt7__cxx1112basic_stringIcSt11char_traitsIcESaIcEEpLEc@plt>
  400ecf:	83 45 e4 01          	addl   $0x1,-0x1c(%rbp)
  400ed3:	e9 66 ff ff ff       	jmpq   400e3e <_Z7rahasyaNSt7__cxx1112basic_stringIcSt11char_traitsIcESaIcEEES4_+0x58>
  400ed8:	48 89 c3             	mov    %rax,%rbx
  400edb:	48 8d 45 e0          	lea    -0x20(%rbp),%rax
  400edf:	48 89 c7             	mov    %rax,%rdi
  400ee2:	e8 79 fd ff ff       	callq  400c60 <_ZNSaIcED1Ev@plt>
  400ee7:	48 89 d8             	mov    %rbx,%rax
  400eea:	48 89 c7             	mov    %rax,%rdi
  400eed:	e8 be fd ff ff       	callq  400cb0 <_Unwind_Resume@plt>
  400ef2:	48 89 c3             	mov    %rax,%rbx
  400ef5:	48 8b 45 d8          	mov    -0x28(%rbp),%rax
  400ef9:	48 89 c7             	mov    %rax,%rdi
  400efc:	e8 1f fd ff ff       	callq  400c20 <_ZNSt7__cxx1112basic_stringIcSt11char_traitsIcESaIcEED1Ev@plt>
  400f01:	48 89 d8             	mov    %rbx,%rax
  400f04:	48 89 c7             	mov    %rax,%rdi
  400f07:	e8 a4 fd ff ff       	callq  400cb0 <_Unwind_Resume@plt>
  400f0c:	90                   	nop
  400f0d:	48 8b 45 d8          	mov    -0x28(%rbp),%rax
  400f11:	48 8b 4d e8          	mov    -0x18(%rbp),%rcx
  400f15:	64 48 33 0c 25 28 00 	xor    %fs:0x28,%rcx
  400f1c:	00 00 
  400f1e:	74 05                	je     400f25 <_Z7rahasyaNSt7__cxx1112basic_stringIcSt11char_traitsIcESaIcEEES4_+0x13f>
  400f20:	e8 2b fd ff ff       	callq  400c50 <__stack_chk_fail@plt>
  400f25:	48 83 c4 38          	add    $0x38,%rsp
  400f29:	5b                   	pop    %rbx
  400f2a:	5d                   	pop    %rbp
  400f2b:	c3                   	retq   

0000000000400f2c <main>:
  400f2c:	55                   	push   %rbp
  400f2d:	48 89 e5             	mov    %rsp,%rbp
  400f30:	41 56                	push   %r14
  400f32:	41 55                	push   %r13
  400f34:	41 54                	push   %r12
  400f36:	53                   	push   %rbx
  400f37:	48 81 ec 50 01 00 00 	sub    $0x150,%rsp
  400f3e:	89 bd cc fe ff ff    	mov    %edi,-0x134(%rbp)
  400f44:	48 89 b5 c0 fe ff ff 	mov    %rsi,-0x140(%rbp)
  400f4b:	64 48 8b 04 25 28 00 	mov    %fs:0x28,%rax
  400f52:	00 00 
  400f54:	48 89 45 d8          	mov    %rax,-0x28(%rbp)
  400f58:	31 c0                	xor    %eax,%eax
  400f5a:	48 89 e0             	mov    %rsp,%rax
  400f5d:	49 89 c4             	mov    %rax,%r12
  400f60:	83 bd cc fe ff ff 02 	cmpl   $0x2,-0x134(%rbp)
  400f67:	74 19                	je     400f82 <main+0x56>
  400f69:	be 65 15 40 00       	mov    $0x401565,%esi
  400f6e:	bf 80 21 60 00       	mov    $0x602180,%edi
  400f73:	e8 98 fc ff ff       	callq  400c10 <_ZStlsISt11char_traitsIcEERSt13basic_ostreamIcT_ES5_PKc@plt>
  400f78:	bf 00 00 00 00       	mov    $0x0,%edi
  400f7d:	e8 2e fc ff ff       	callq  400bb0 <exit@plt>
  400f82:	c7 85 e0 fe ff ff 00 	movl   $0x0,-0x120(%rbp)
  400f89:	00 00 00 
  400f8c:	b9 00 00 00 00       	mov    $0x0,%ecx
  400f91:	ba 01 00 00 00       	mov    $0x1,%edx
  400f96:	be 00 00 00 00       	mov    $0x0,%esi
  400f9b:	bf 00 00 00 00       	mov    $0x0,%edi
  400fa0:	b8 00 00 00 00       	mov    $0x0,%eax
  400fa5:	e8 96 fc ff ff       	callq  400c40 <ptrace@plt>
  400faa:	48 85 c0             	test   %rax,%rax
  400fad:	0f 94 c0             	sete   %al
  400fb0:	84 c0                	test   %al,%al
  400fb2:	74 0a                	je     400fbe <main+0x92>
  400fb4:	c7 85 e0 fe ff ff 02 	movl   $0x2,-0x120(%rbp)
  400fbb:	00 00 00 
  400fbe:	b9 00 00 00 00       	mov    $0x0,%ecx
  400fc3:	ba 01 00 00 00       	mov    $0x1,%edx
  400fc8:	be 00 00 00 00       	mov    $0x0,%esi
  400fcd:	bf 00 00 00 00       	mov    $0x0,%edi
  400fd2:	b8 00 00 00 00       	mov    $0x0,%eax
  400fd7:	e8 64 fc ff ff       	callq  400c40 <ptrace@plt>
  400fdc:	48 83 f8 ff          	cmp    $0xffffffffffffffff,%rax
  400fe0:	0f 94 c0             	sete   %al
  400fe3:	84 c0                	test   %al,%al
  400fe5:	74 12                	je     400ff9 <main+0xcd>
  400fe7:	8b 95 e0 fe ff ff    	mov    -0x120(%rbp),%edx
  400fed:	89 d0                	mov    %edx,%eax
  400fef:	01 c0                	add    %eax,%eax
  400ff1:	01 d0                	add    %edx,%eax
  400ff3:	89 85 e0 fe ff ff    	mov    %eax,-0x120(%rbp)
  400ff9:	83 bd e0 fe ff ff 06 	cmpl   $0x6,-0x120(%rbp)
  401000:	74 14                	je     401016 <main+0xea>
  401002:	bf 7c 15 40 00       	mov    $0x40157c,%edi
  401007:	e8 94 fb ff ff       	callq  400ba0 <puts@plt>
  40100c:	bf 00 00 00 00       	mov    $0x0,%edi
  401011:	e8 9a fb ff ff       	callq  400bb0 <exit@plt>
  401016:	48 8d 85 df fe ff ff 	lea    -0x121(%rbp),%rax
  40101d:	48 89 c7             	mov    %rax,%rdi
  401020:	e8 6b fc ff ff       	callq  400c90 <_ZNSaIcEC1Ev@plt>
  401025:	48 8b 85 c0 fe ff ff 	mov    -0x140(%rbp),%rax
  40102c:	48 83 c0 08          	add    $0x8,%rax
  401030:	48 8b 08             	mov    (%rax),%rcx
  401033:	48 8d 95 df fe ff ff 	lea    -0x121(%rbp),%rdx
  40103a:	48 8d 85 10 ff ff ff 	lea    -0xf0(%rbp),%rax
  401041:	48 89 ce             	mov    %rcx,%rsi
  401044:	48 89 c7             	mov    %rax,%rdi
  401047:	e8 34 fc ff ff       	callq  400c80 <_ZNSt7__cxx1112basic_stringIcSt11char_traitsIcESaIcEEC1EPKcRKS3_@plt>
  40104c:	48 8d 85 df fe ff ff 	lea    -0x121(%rbp),%rax
  401053:	48 89 c7             	mov    %rax,%rdi
  401056:	e8 05 fc ff ff       	callq  400c60 <_ZNSaIcED1Ev@plt>
  40105b:	b8 1a 00 00 00       	mov    $0x1a,%eax
  401060:	89 85 ec fe ff ff    	mov    %eax,-0x114(%rbp)
  401066:	8b 85 ec fe ff ff    	mov    -0x114(%rbp),%eax
  40106c:	83 c0 01             	add    $0x1,%eax
  40106f:	48 98                	cltq   
  401071:	48 83 e8 01          	sub    $0x1,%rax
  401075:	48 89 85 f0 fe ff ff 	mov    %rax,-0x110(%rbp)
  40107c:	48 89 c2             	mov    %rax,%rdx
  40107f:	48 83 c2 01          	add    $0x1,%rdx
  401083:	48 89 95 b0 fe ff ff 	mov    %rdx,-0x150(%rbp)
  40108a:	48 c7 85 b8 fe ff ff 	movq   $0x0,-0x148(%rbp)
  401091:	00 00 00 00 
  401095:	48 89 c2             	mov    %rax,%rdx
  401098:	48 83 c2 01          	add    $0x1,%rdx
  40109c:	48 89 95 a0 fe ff ff 	mov    %rdx,-0x160(%rbp)
  4010a3:	48 c7 85 a8 fe ff ff 	movq   $0x0,-0x158(%rbp)
  4010aa:	00 00 00 00 
  4010ae:	48 8d 50 01          	lea    0x1(%rax),%rdx
  4010b2:	b8 10 00 00 00       	mov    $0x10,%eax
  4010b7:	48 83 e8 01          	sub    $0x1,%rax
  4010bb:	48 01 d0             	add    %rdx,%rax
  4010be:	b9 10 00 00 00       	mov    $0x10,%ecx
  4010c3:	ba 00 00 00 00       	mov    $0x0,%edx
  4010c8:	48 f7 f1             	div    %rcx
  4010cb:	48 6b c0 10          	imul   $0x10,%rax,%rax
  4010cf:	48 29 c4             	sub    %rax,%rsp
  4010d2:	48 89 e0             	mov    %rsp,%rax
  4010d5:	48 83 c0 00          	add    $0x0,%rax
  4010d9:	48 89 85 f8 fe ff ff 	mov    %rax,-0x108(%rbp)
  4010e0:	c7 85 e4 fe ff ff 00 	movl   $0x0,-0x11c(%rbp)
  4010e7:	00 00 00 
  4010ea:	8b 85 e4 fe ff ff    	mov    -0x11c(%rbp),%eax
  4010f0:	3b 85 ec fe ff ff    	cmp    -0x114(%rbp),%eax
  4010f6:	7d 2c                	jge    401124 <main+0x1f8>
  4010f8:	8b 85 e4 fe ff ff    	mov    -0x11c(%rbp),%eax
  4010fe:	48 98                	cltq   
  401100:	8b 04 85 e0 20 60 00 	mov    0x6020e0(,%rax,4),%eax
  401107:	89 c1                	mov    %eax,%ecx
  401109:	48 8b 95 f8 fe ff ff 	mov    -0x108(%rbp),%rdx
  401110:	8b 85 e4 fe ff ff    	mov    -0x11c(%rbp),%eax
  401116:	48 98                	cltq   
  401118:	88 0c 02             	mov    %cl,(%rdx,%rax,1)
  40111b:	83 85 e4 fe ff ff 01 	addl   $0x1,-0x11c(%rbp)
  401122:	eb c6                	jmp    4010ea <main+0x1be>
  401124:	48 8b 95 f8 fe ff ff 	mov    -0x108(%rbp),%rdx
  40112b:	8b 85 ec fe ff ff    	mov    -0x114(%rbp),%eax
  401131:	48 98                	cltq   
  401133:	c6 04 02 00          	movb   $0x0,(%rdx,%rax,1)
  401137:	48 8d 85 df fe ff ff 	lea    -0x121(%rbp),%rax
  40113e:	48 89 c7             	mov    %rax,%rdi
  401141:	e8 4a fb ff ff       	callq  400c90 <_ZNSaIcEC1Ev@plt>
  401146:	48 8b 8d f8 fe ff ff 	mov    -0x108(%rbp),%rcx
  40114d:	48 8d 95 df fe ff ff 	lea    -0x121(%rbp),%rdx
  401154:	48 8d 85 30 ff ff ff 	lea    -0xd0(%rbp),%rax
  40115b:	48 89 ce             	mov    %rcx,%rsi
  40115e:	48 89 c7             	mov    %rax,%rdi
  401161:	e8 1a fb ff ff       	callq  400c80 <_ZNSt7__cxx1112basic_stringIcSt11char_traitsIcESaIcEEC1EPKcRKS3_@plt>
  401166:	48 8d 85 df fe ff ff 	lea    -0x121(%rbp),%rax
  40116d:	48 89 c7             	mov    %rax,%rdi
  401170:	e8 eb fa ff ff       	callq  400c60 <_ZNSaIcED1Ev@plt>
  401175:	b8 07 00 00 00       	mov    $0x7,%eax
  40117a:	89 85 ec fe ff ff    	mov    %eax,-0x114(%rbp)
  401180:	8b 85 ec fe ff ff    	mov    -0x114(%rbp),%eax
  401186:	83 c0 01             	add    $0x1,%eax
  401189:	48 98                	cltq   
  40118b:	48 83 e8 01          	sub    $0x1,%rax
  40118f:	48 89 85 00 ff ff ff 	mov    %rax,-0x100(%rbp)
  401196:	48 89 c2             	mov    %rax,%rdx
  401199:	48 83 c2 01          	add    $0x1,%rdx
  40119d:	48 89 95 90 fe ff ff 	mov    %rdx,-0x170(%rbp)
  4011a4:	48 c7 85 98 fe ff ff 	movq   $0x0,-0x168(%rbp)
  4011ab:	00 00 00 00 
  4011af:	48 89 c2             	mov    %rax,%rdx
  4011b2:	48 83 c2 01          	add    $0x1,%rdx
  4011b6:	49 89 d5             	mov    %rdx,%r13
  4011b9:	41 be 00 00 00 00    	mov    $0x0,%r14d
  4011bf:	48 8d 50 01          	lea    0x1(%rax),%rdx
  4011c3:	b8 10 00 00 00       	mov    $0x10,%eax
  4011c8:	48 83 e8 01          	sub    $0x1,%rax
  4011cc:	48 01 d0             	add    %rdx,%rax
  4011cf:	be 10 00 00 00       	mov    $0x10,%esi
  4011d4:	ba 00 00 00 00       	mov    $0x0,%edx
  4011d9:	48 f7 f6             	div    %rsi
  4011dc:	48 6b c0 10          	imul   $0x10,%rax,%rax
  4011e0:	48 29 c4             	sub    %rax,%rsp
  4011e3:	48 89 e0             	mov    %rsp,%rax
  4011e6:	48 83 c0 00          	add    $0x0,%rax
  4011ea:	48 89 85 08 ff ff ff 	mov    %rax,-0xf8(%rbp)
  4011f1:	c7 85 e8 fe ff ff 00 	movl   $0x0,-0x118(%rbp)
  4011f8:	00 00 00 
  4011fb:	8b 85 e8 fe ff ff    	mov    -0x118(%rbp),%eax
  401201:	3b 85 ec fe ff ff    	cmp    -0x114(%rbp),%eax
  401207:	7d 2c                	jge    401235 <main+0x309>
  401209:	8b 85 e8 fe ff ff    	mov    -0x118(%rbp),%eax
  40120f:	48 98                	cltq   
  401211:	8b 04 85 50 21 60 00 	mov    0x602150(,%rax,4),%eax
  401218:	89 c1                	mov    %eax,%ecx
  40121a:	48 8b 95 08 ff ff ff 	mov    -0xf8(%rbp),%rdx
  401221:	8b 85 e8 fe ff ff    	mov    -0x118(%rbp),%eax
  401227:	48 98                	cltq   
  401229:	88 0c 02             	mov    %cl,(%rdx,%rax,1)
  40122c:	83 85 e8 fe ff ff 01 	addl   $0x1,-0x118(%rbp)
  401233:	eb c6                	jmp    4011fb <main+0x2cf>
  401235:	48 8b 95 08 ff ff ff 	mov    -0xf8(%rbp),%rdx
  40123c:	8b 85 ec fe ff ff    	mov    -0x114(%rbp),%eax
  401242:	48 98                	cltq   
  401244:	c6 04 02 00          	movb   $0x0,(%rdx,%rax,1)
  401248:	48 8d 85 df fe ff ff 	lea    -0x121(%rbp),%rax
  40124f:	48 89 c7             	mov    %rax,%rdi
  401252:	e8 39 fa ff ff       	callq  400c90 <_ZNSaIcEC1Ev@plt>
  401257:	48 8b 8d 08 ff ff ff 	mov    -0xf8(%rbp),%rcx
  40125e:	48 8d 95 df fe ff ff 	lea    -0x121(%rbp),%rdx
  401265:	48 8d 85 50 ff ff ff 	lea    -0xb0(%rbp),%rax
  40126c:	48 89 ce             	mov    %rcx,%rsi
  40126f:	48 89 c7             	mov    %rax,%rdi
  401272:	e8 09 fa ff ff       	callq  400c80 <_ZNSt7__cxx1112basic_stringIcSt11char_traitsIcESaIcEEC1EPKcRKS3_@plt>
  401277:	48 8d 85 df fe ff ff 	lea    -0x121(%rbp),%rax
  40127e:	48 89 c7             	mov    %rax,%rdi
  401281:	e8 da f9 ff ff       	callq  400c60 <_ZNSaIcED1Ev@plt>
  401286:	48 8d 95 10 ff ff ff 	lea    -0xf0(%rbp),%rdx
  40128d:	48 8d 45 b0          	lea    -0x50(%rbp),%rax
  401291:	48 89 d6             	mov    %rdx,%rsi
  401294:	48 89 c7             	mov    %rax,%rdi
  401297:	e8 d4 f9 ff ff       	callq  400c70 <_ZNSt7__cxx1112basic_stringIcSt11char_traitsIcESaIcEEC1ERKS4_@plt>
  40129c:	48 8d 95 50 ff ff ff 	lea    -0xb0(%rbp),%rdx
  4012a3:	48 8d 45 90          	lea    -0x70(%rbp),%rax
  4012a7:	48 89 d6             	mov    %rdx,%rsi
  4012aa:	48 89 c7             	mov    %rax,%rdi
  4012ad:	e8 be f9 ff ff       	callq  400c70 <_ZNSt7__cxx1112basic_stringIcSt11char_traitsIcESaIcEEC1ERKS4_@plt>
  4012b2:	48 8d 85 70 ff ff ff 	lea    -0x90(%rbp),%rax
  4012b9:	48 8d 55 b0          	lea    -0x50(%rbp),%rdx
  4012bd:	48 8d 4d 90          	lea    -0x70(%rbp),%rcx
  4012c1:	48 89 ce             	mov    %rcx,%rsi
  4012c4:	48 89 c7             	mov    %rax,%rdi
  4012c7:	e8 1a fb ff ff       	callq  400de6 <_Z7rahasyaNSt7__cxx1112basic_stringIcSt11char_traitsIcESaIcEEES4_>
  4012cc:	48 8d 45 90          	lea    -0x70(%rbp),%rax
  4012d0:	48 89 c7             	mov    %rax,%rdi
  4012d3:	e8 48 f9 ff ff       	callq  400c20 <_ZNSt7__cxx1112basic_stringIcSt11char_traitsIcESaIcEED1Ev@plt>
  4012d8:	48 8d 45 b0          	lea    -0x50(%rbp),%rax
  4012dc:	48 89 c7             	mov    %rax,%rdi
  4012df:	e8 3c f9 ff ff       	callq  400c20 <_ZNSt7__cxx1112basic_stringIcSt11char_traitsIcESaIcEED1Ev@plt>
  4012e4:	48 8d 95 30 ff ff ff 	lea    -0xd0(%rbp),%rdx
  4012eb:	48 8d 85 70 ff ff ff 	lea    -0x90(%rbp),%rax
  4012f2:	48 89 d6             	mov    %rdx,%rsi
  4012f5:	48 89 c7             	mov    %rax,%rdi
  4012f8:	e8 33 f9 ff ff       	callq  400c30 <_ZNKSt7__cxx1112basic_stringIcSt11char_traitsIcESaIcEE7compareERKS4_@plt>
  4012fd:	85 c0                	test   %eax,%eax
  4012ff:	0f 94 c0             	sete   %al
  401302:	84 c0                	test   %al,%al
  401304:	74 11                	je     401317 <main+0x3eb>
  401306:	be 9a 15 40 00       	mov    $0x40159a,%esi
  40130b:	bf 80 21 60 00       	mov    $0x602180,%edi
  401310:	e8 fb f8 ff ff       	callq  400c10 <_ZStlsISt11char_traitsIcEERSt13basic_ostreamIcT_ES5_PKc@plt>
  401315:	eb 0f                	jmp    401326 <main+0x3fa>
  401317:	be b0 15 40 00       	mov    $0x4015b0,%esi
  40131c:	bf 80 21 60 00       	mov    $0x602180,%edi
  401321:	e8 ea f8 ff ff       	callq  400c10 <_ZStlsISt11char_traitsIcEERSt13basic_ostreamIcT_ES5_PKc@plt>
  401326:	bb 00 00 00 00       	mov    $0x0,%ebx
  40132b:	48 8d 85 70 ff ff ff 	lea    -0x90(%rbp),%rax
  401332:	48 89 c7             	mov    %rax,%rdi
  401335:	e8 e6 f8 ff ff       	callq  400c20 <_ZNSt7__cxx1112basic_stringIcSt11char_traitsIcESaIcEED1Ev@plt>
  40133a:	48 8d 85 50 ff ff ff 	lea    -0xb0(%rbp),%rax
  401341:	48 89 c7             	mov    %rax,%rdi
  401344:	e8 d7 f8 ff ff       	callq  400c20 <_ZNSt7__cxx1112basic_stringIcSt11char_traitsIcESaIcEED1Ev@plt>
  401349:	48 8d 85 30 ff ff ff 	lea    -0xd0(%rbp),%rax
  401350:	48 89 c7             	mov    %rax,%rdi
  401353:	e8 c8 f8 ff ff       	callq  400c20 <_ZNSt7__cxx1112basic_stringIcSt11char_traitsIcESaIcEED1Ev@plt>
  401358:	48 8d 85 10 ff ff ff 	lea    -0xf0(%rbp),%rax
  40135f:	48 89 c7             	mov    %rax,%rdi
  401362:	e8 b9 f8 ff ff       	callq  400c20 <_ZNSt7__cxx1112basic_stringIcSt11char_traitsIcESaIcEED1Ev@plt>
  401367:	4c 89 e4             	mov    %r12,%rsp
  40136a:	89 d8                	mov    %ebx,%eax
  40136c:	48 8b 75 d8          	mov    -0x28(%rbp),%rsi
  401370:	64 48 33 34 25 28 00 	xor    %fs:0x28,%rsi
  401377:	00 00 
  401379:	0f 84 f5 00 00 00    	je     401474 <main+0x548>
  40137f:	e9 eb 00 00 00       	jmpq   40146f <main+0x543>
  401384:	48 89 c3             	mov    %rax,%rbx
  401387:	48 8d 85 df fe ff ff 	lea    -0x121(%rbp),%rax
  40138e:	48 89 c7             	mov    %rax,%rdi
  401391:	e8 ca f8 ff ff       	callq  400c60 <_ZNSaIcED1Ev@plt>
  401396:	48 89 d8             	mov    %rbx,%rax
  401399:	48 89 c7             	mov    %rax,%rdi
  40139c:	e8 0f f9 ff ff       	callq  400cb0 <_Unwind_Resume@plt>
  4013a1:	48 89 c3             	mov    %rax,%rbx
  4013a4:	48 8d 85 df fe ff ff 	lea    -0x121(%rbp),%rax
  4013ab:	48 89 c7             	mov    %rax,%rdi
  4013ae:	e8 ad f8 ff ff       	callq  400c60 <_ZNSaIcED1Ev@plt>
  4013b3:	e9 9d 00 00 00       	jmpq   401455 <main+0x529>
  4013b8:	48 89 c3             	mov    %rax,%rbx
  4013bb:	48 8d 85 df fe ff ff 	lea    -0x121(%rbp),%rax
  4013c2:	48 89 c7             	mov    %rax,%rdi
  4013c5:	e8 96 f8 ff ff       	callq  400c60 <_ZNSaIcED1Ev@plt>
  4013ca:	eb 75                	jmp    401441 <main+0x515>
  4013cc:	48 89 c3             	mov    %rax,%rbx
  4013cf:	48 8d 45 90          	lea    -0x70(%rbp),%rax
  4013d3:	48 89 c7             	mov    %rax,%rdi
  4013d6:	e8 45 f8 ff ff       	callq  400c20 <_ZNSt7__cxx1112basic_stringIcSt11char_traitsIcESaIcEED1Ev@plt>
  4013db:	eb 17                	jmp    4013f4 <main+0x4c8>
  4013dd:	48 89 c3             	mov    %rax,%rbx
  4013e0:	48 8d 85 70 ff ff ff 	lea    -0x90(%rbp),%rax
  4013e7:	48 89 c7             	mov    %rax,%rdi
  4013ea:	e8 31 f8 ff ff       	callq  400c20 <_ZNSt7__cxx1112basic_stringIcSt11char_traitsIcESaIcEED1Ev@plt>
  4013ef:	eb 03                	jmp    4013f4 <main+0x4c8>
  4013f1:	48 89 c3             	mov    %rax,%rbx
  4013f4:	48 8d 45 b0          	lea    -0x50(%rbp),%rax
  4013f8:	48 89 c7             	mov    %rax,%rdi
  4013fb:	e8 20 f8 ff ff       	callq  400c20 <_ZNSt7__cxx1112basic_stringIcSt11char_traitsIcESaIcEED1Ev@plt>
  401400:	eb 2b                	jmp    40142d <main+0x501>
  401402:	48 89 c3             	mov    %rax,%rbx
  401405:	48 8d 85 70 ff ff ff 	lea    -0x90(%rbp),%rax
  40140c:	48 89 c7             	mov    %rax,%rdi
  40140f:	e8 0c f8 ff ff       	callq  400c20 <_ZNSt7__cxx1112basic_stringIcSt11char_traitsIcESaIcEED1Ev@plt>
  401414:	eb 17                	jmp    40142d <main+0x501>
  401416:	48 89 c3             	mov    %rax,%rbx
  401419:	48 8d 85 70 ff ff ff 	lea    -0x90(%rbp),%rax
  401420:	48 89 c7             	mov    %rax,%rdi
  401423:	e8 f8 f7 ff ff       	callq  400c20 <_ZNSt7__cxx1112basic_stringIcSt11char_traitsIcESaIcEED1Ev@plt>
  401428:	eb 03                	jmp    40142d <main+0x501>
  40142a:	48 89 c3             	mov    %rax,%rbx
  40142d:	48 8d 85 50 ff ff ff 	lea    -0xb0(%rbp),%rax
  401434:	48 89 c7             	mov    %rax,%rdi
  401437:	e8 e4 f7 ff ff       	callq  400c20 <_ZNSt7__cxx1112basic_stringIcSt11char_traitsIcESaIcEED1Ev@plt>
  40143c:	eb 03                	jmp    401441 <main+0x515>
  40143e:	48 89 c3             	mov    %rax,%rbx
  401441:	48 8d 85 30 ff ff ff 	lea    -0xd0(%rbp),%rax
  401448:	48 89 c7             	mov    %rax,%rdi
  40144b:	e8 d0 f7 ff ff       	callq  400c20 <_ZNSt7__cxx1112basic_stringIcSt11char_traitsIcESaIcEED1Ev@plt>
  401450:	eb 03                	jmp    401455 <main+0x529>
  401452:	48 89 c3             	mov    %rax,%rbx
  401455:	48 8d 85 10 ff ff ff 	lea    -0xf0(%rbp),%rax
  40145c:	48 89 c7             	mov    %rax,%rdi
  40145f:	e8 bc f7 ff ff       	callq  400c20 <_ZNSt7__cxx1112basic_stringIcSt11char_traitsIcESaIcEED1Ev@plt>
  401464:	48 89 d8             	mov    %rbx,%rax
  401467:	48 89 c7             	mov    %rax,%rdi
  40146a:	e8 41 f8 ff ff       	callq  400cb0 <_Unwind_Resume@plt>
  40146f:	e8 dc f7 ff ff       	callq  400c50 <__stack_chk_fail@plt>
  401474:	48 8d 65 e0          	lea    -0x20(%rbp),%rsp
  401478:	5b                   	pop    %rbx
  401479:	41 5c                	pop    %r12
  40147b:	41 5d                	pop    %r13
  40147d:	41 5e                	pop    %r14
  40147f:	5d                   	pop    %rbp
  401480:	c3                   	retq   

0000000000401481 <_Z41__static_initialization_and_destruction_0ii>:
  401481:	55                   	push   %rbp
  401482:	48 89 e5             	mov    %rsp,%rbp
  401485:	48 83 ec 10          	sub    $0x10,%rsp
  401489:	89 7d fc             	mov    %edi,-0x4(%rbp)
  40148c:	89 75 f8             	mov    %esi,-0x8(%rbp)
  40148f:	83 7d fc 01          	cmpl   $0x1,-0x4(%rbp)
  401493:	75 27                	jne    4014bc <_Z41__static_initialization_and_destruction_0ii+0x3b>
  401495:	81 7d f8 ff ff 00 00 	cmpl   $0xffff,-0x8(%rbp)
  40149c:	75 1e                	jne    4014bc <_Z41__static_initialization_and_destruction_0ii+0x3b>
  40149e:	bf 91 22 60 00       	mov    $0x602291,%edi
  4014a3:	e8 28 f7 ff ff       	callq  400bd0 <_ZNSt8ios_base4InitC1Ev@plt>
  4014a8:	ba c8 20 60 00       	mov    $0x6020c8,%edx
  4014ad:	be 91 22 60 00       	mov    $0x602291,%esi
  4014b2:	bf 00 0c 40 00       	mov    $0x400c00,%edi
  4014b7:	e8 34 f7 ff ff       	callq  400bf0 <__cxa_atexit@plt>
  4014bc:	90                   	nop
  4014bd:	c9                   	leaveq 
  4014be:	c3                   	retq   

00000000004014bf <_GLOBAL__sub_I_enc_int>:
  4014bf:	55                   	push   %rbp
  4014c0:	48 89 e5             	mov    %rsp,%rbp
  4014c3:	be ff ff 00 00       	mov    $0xffff,%esi
  4014c8:	bf 01 00 00 00       	mov    $0x1,%edi
  4014cd:	e8 af ff ff ff       	callq  401481 <_Z41__static_initialization_and_destruction_0ii>
  4014d2:	5d                   	pop    %rbp
  4014d3:	c3                   	retq   
  4014d4:	66 2e 0f 1f 84 00 00 	nopw   %cs:0x0(%rax,%rax,1)
  4014db:	00 00 00 
  4014de:	66 90                	xchg   %ax,%ax

00000000004014e0 <__libc_csu_init>:
  4014e0:	41 57                	push   %r15
  4014e2:	41 56                	push   %r14
  4014e4:	41 89 ff             	mov    %edi,%r15d
  4014e7:	41 55                	push   %r13
  4014e9:	41 54                	push   %r12
  4014eb:	4c 8d 25 f6 08 20 00 	lea    0x2008f6(%rip),%r12        # 601de8 <__frame_dummy_init_array_entry>
  4014f2:	55                   	push   %rbp
  4014f3:	48 8d 2d fe 08 20 00 	lea    0x2008fe(%rip),%rbp        # 601df8 <__do_global_dtors_aux_fini_array_entry>
  4014fa:	53                   	push   %rbx
  4014fb:	49 89 f6             	mov    %rsi,%r14
  4014fe:	49 89 d5             	mov    %rdx,%r13
  401501:	4c 29 e5             	sub    %r12,%rbp
  401504:	48 83 ec 08          	sub    $0x8,%rsp
  401508:	48 c1 fd 03          	sar    $0x3,%rbp
  40150c:	e8 5f f6 ff ff       	callq  400b70 <_init>
  401511:	48 85 ed             	test   %rbp,%rbp
  401514:	74 20                	je     401536 <__libc_csu_init+0x56>
  401516:	31 db                	xor    %ebx,%ebx
  401518:	0f 1f 84 00 00 00 00 	nopl   0x0(%rax,%rax,1)
  40151f:	00 
  401520:	4c 89 ea             	mov    %r13,%rdx
  401523:	4c 89 f6             	mov    %r14,%rsi
  401526:	44 89 ff             	mov    %r15d,%edi
  401529:	41 ff 14 dc          	callq  *(%r12,%rbx,8)
  40152d:	48 83 c3 01          	add    $0x1,%rbx
  401531:	48 39 eb             	cmp    %rbp,%rbx
  401534:	75 ea                	jne    401520 <__libc_csu_init+0x40>
  401536:	48 83 c4 08          	add    $0x8,%rsp
  40153a:	5b                   	pop    %rbx
  40153b:	5d                   	pop    %rbp
  40153c:	41 5c                	pop    %r12
  40153e:	41 5d                	pop    %r13
  401540:	41 5e                	pop    %r14
  401542:	41 5f                	pop    %r15
  401544:	c3                   	retq   
  401545:	90                   	nop
  401546:	66 2e 0f 1f 84 00 00 	nopw   %cs:0x0(%rax,%rax,1)
  40154d:	00 00 00 

0000000000401550 <__libc_csu_fini>:
  401550:	f3 c3                	repz retq 

Disassembly of section .fini:

0000000000401554 <_fini>:
  401554:	48 83 ec 08          	sub    $0x8,%rsp
  401558:	48 83 c4 08          	add    $0x8,%rsp
  40155c:	c3                   	retq   
